target datalayout = "e-m:e-p270:32:32-p271:32:32-p272:64:64-i64:64-i128:128-f80:128-n8:16:32:64-S128"
target triple = "x86_64-unknown-linux-gnu"

%"class.OpenColorIO_v2_4dev::DynamicPropertyImpl" = type <{ %"class.OpenColorIO_v2_4dev::DynamicProperty", i32, i8, [3 x i8] }>
%"class.OpenColorIO_v2_4dev::DynamicProperty" = type { ptr }
%"class.OpenColorIO_v2_4dev::DynamicPropertyDoubleImpl" = type { %"class.OpenColorIO_v2_4dev::DynamicPropertyImpl.base", %"class.OpenColorIO_v2_4dev::DynamicPropertyDouble", double }
%"class.OpenColorIO_v2_4dev::DynamicPropertyImpl.base" = type <{ %"class.OpenColorIO_v2_4dev::DynamicProperty", i32, i8 }>
%"class.OpenColorIO_v2_4dev::DynamicPropertyDouble" = type { ptr }

; Function Attrs: mustprogress nounwind uwtable
define linkonce_odr hidden void @_ZN19OpenColorIO_v2_4dev15DynamicPropertyC2Ev(ptr noundef nonnull align 8 dereferenceable(8) %this) unnamed_addr #1 comdat align 2 {
entry:
  %this.addr = alloca ptr, align 8
  store ptr %this, ptr %this.addr, align 8
  %this1 = load ptr, ptr %this.addr, align 8
  store ptr getelementptr inbounds ({ [5 x ptr] }, ptr @_ZTVN19OpenColorIO_v2_4dev15DynamicPropertyE, i32 0, i32 0, i32 2), ptr %this1, align 8
  ret void
}

; Function Attrs: mustprogress nounwind uwtable
define linkonce_odr hidden void @_ZN19OpenColorIO_v2_4dev21DynamicPropertyDoubleC2Ev(ptr noundef nonnull align 8 dereferenceable(8) %this) unnamed_addr #1 comdat align 2 {
entry:
  %this.addr = alloca ptr, align 8
  store ptr %this, ptr %this.addr, align 8
  %this1 = load ptr, ptr %this.addr, align 8
  store ptr getelementptr inbounds ({ [6 x ptr] }, ptr @_ZTVN19OpenColorIO_v2_4dev21DynamicPropertyDoubleE, i32 0, i32 0, i32 2), ptr %this1, align 8
  ret void
}

; Function Attrs: mustprogress nounwind uwtable
define hidden void @_ZN19OpenColorIO_v2_4dev19DynamicPropertyImplC2ENS_19DynamicPropertyTypeEb(ptr noundef nonnull align 8 dereferenceable(13) %this, i32 noundef %type, i1 noundef zeroext %dynamic) unnamed_addr #1 align 2 {
entry:
  %this.addr = alloca ptr, align 8
  %type.addr = alloca i32, align 4
  %dynamic.addr = alloca i8, align 1
  store ptr %this, ptr %this.addr, align 8
  store i32 %type, ptr %type.addr, align 4
  %frombool = zext i1 %dynamic to i8
  store i8 %frombool, ptr %dynamic.addr, align 1
  %this1 = load ptr, ptr %this.addr, align 8
  call void @_ZN19OpenColorIO_v2_4dev15DynamicPropertyC2Ev(ptr noundef nonnull align 8 dereferenceable(8) %this1) #13
  store ptr getelementptr inbounds ({ [5 x ptr] }, ptr @_ZTVN19OpenColorIO_v2_4dev19DynamicPropertyImplE, i32 0, i32 0, i32 2), ptr %this1, align 8
  %m_type = getelementptr inbounds %"class.OpenColorIO_v2_4dev::DynamicPropertyImpl", ptr %this1, i32 0, i32 1
  %0 = load i32, ptr %type.addr, align 4
  store i32 %0, ptr %m_type, align 8
  %m_isDynamic = getelementptr inbounds %"class.OpenColorIO_v2_4dev::DynamicPropertyImpl", ptr %this1, i32 0, i32 2
  %1 = load i8, ptr %dynamic.addr, align 1
  %tobool = trunc i8 %1 to i1
  %frombool2 = zext i1 %tobool to i8
  store i8 %frombool2, ptr %m_isDynamic, align 4
  ret void
}

; Function Attrs: mustprogress nounwind uwtable
define hidden void @_ZN19OpenColorIO_v2_4dev25DynamicPropertyDoubleImplC2ENS_19DynamicPropertyTypeEdb(ptr noundef nonnull align 8 dereferenceable(32) %this, i32 noundef %type, double noundef %value, i1 noundef zeroext %dynamic) unnamed_addr #1 align 2 {
entry:
  %this.addr = alloca ptr, align 8
  %type.addr = alloca i32, align 4
  %value.addr = alloca double, align 8
  %dynamic.addr = alloca i8, align 1
  store ptr %this, ptr %this.addr, align 8
  store i32 %type, ptr %type.addr, align 4
  store double %value, ptr %value.addr, align 8
  %frombool = zext i1 %dynamic to i8
  store i8 %frombool, ptr %dynamic.addr, align 1
  %this1 = load ptr, ptr %this.addr, align 8
  %0 = load i32, ptr %type.addr, align 4
  %1 = load i8, ptr %dynamic.addr, align 1
  %tobool = trunc i8 %1 to i1
  call void @_ZN19OpenColorIO_v2_4dev19DynamicPropertyImplC2ENS_19DynamicPropertyTypeEb(ptr noundef nonnull align 8 dereferenceable(13) %this1, i32 noundef %0, i1 noundef zeroext %tobool)
  %2 = getelementptr inbounds i8, ptr %this1, i64 16
  call void @_ZN19OpenColorIO_v2_4dev21DynamicPropertyDoubleC2Ev(ptr noundef nonnull align 8 dereferenceable(8) %2) #13
  store ptr getelementptr inbounds ({ [7 x ptr], [6 x ptr] }, ptr @_ZTVN19OpenColorIO_v2_4dev25DynamicPropertyDoubleImplE, i32 0, i32 0, i32 2), ptr %this1, align 8
  %add.ptr = getelementptr inbounds i8, ptr %this1, i64 16
  store ptr getelementptr inbounds ({ [7 x ptr], [6 x ptr] }, ptr @_ZTVN19OpenColorIO_v2_4dev25DynamicPropertyDoubleImplE, i32 0, i32 1, i32 2), ptr %add.ptr, align 8
  %m_value = getelementptr inbounds %"class.OpenColorIO_v2_4dev::DynamicPropertyDoubleImpl", ptr %this1, i32 0, i32 2
  %3 = load double, ptr %value.addr, align 8
  store double %3, ptr %m_value, align 8
  ret void
}