; Function Attrs: mustprogress nofree norecurse nosync nounwind willreturn memory(argmem: write) uwtable
define hidden void @_ZN19OpenColorIO_v2_4dev25DynamicPropertyDoubleImplC2ENS_19DynamicPropertyTypeEdb(ptr nocapture noundef nonnull writeonly align 8 dereferenceable(32) %this, i32 noundef %type, double noundef %value, i1 noundef zeroext %dynamic) unnamed_addr #5 align 2 {
entry:
  %frombool.i = zext i1 %dynamic to i8
  %m_type.i = getelementptr inbounds i8, ptr %this, i64 8
  store i32 %type, ptr %m_type.i, align 8
  %m_isDynamic.i = getelementptr inbounds i8, ptr %this, i64 12
  store i8 %frombool.i, ptr %m_isDynamic.i, align 4
  %0 = getelementptr inbounds i8, ptr %this, i64 16
  store ptr getelementptr inbounds ({ [7 x ptr], [6 x ptr] }, ptr @_ZTVN19OpenColorIO_v2_4dev25DynamicPropertyDoubleImplE, i64 0, i32 0, i64 2), ptr %this, align 8
  store ptr getelementptr inbounds ({ [7 x ptr], [6 x ptr] }, ptr @_ZTVN19OpenColorIO_v2_4dev25DynamicPropertyDoubleImplE, i64 0, i32 1, i64 2), ptr %0, align 8
  %m_value = getelementptr inbounds i8, ptr %this, i64 24
  store double %value, ptr %m_value, align 8
  ret void
}